target datalayout = "e-m:e-p270:32:32-p271:32:32-p272:64:64-i64:64-i128:128-f80:128-n8:16:32:64-S128"
target triple = "x86_64-pc-linux-gnu"

%struct.Agobj_s = type { %struct.Agtag_s, ptr }
%struct.Agtag_s = type { i32, i64 }
%struct.Agraphinfo_t = type { %struct.Agrec_s, ptr, ptr, %struct.boxf, [4 x %struct.pointf_s], i8, i8, i8, i8, i32, double, double, i16, ptr, ptr, ptr, ptr, i32, ptr, ptr, ptr, ptr, i16, i16, i32, ptr, ptr, ptr, ptr, ptr, i32, ptr, ptr, %struct.nlist_t, ptr, ptr, i32, i32, i8, i8, i32, i32, i32, ptr, ptr, ptr, ptr, i8, i8, i8, i8, i8 }
%struct.Agrec_s = type { ptr, ptr }
%struct.boxf = type { %struct.pointf_s, %struct.pointf_s }
%struct.pointf_s = type { double, double }
%struct.nlist_t = type { ptr, i64 }
%struct.rank_t = type { i32, ptr, i32, ptr, double, double, double, double, i8, i8, i64, ptr }
%struct.Agnodeinfo_t = type { %struct.Agrec_s, ptr, ptr, %struct.pointf_s, double, double, %struct.boxf, double, double, double, double, double, ptr, ptr, ptr, i8, i8, i8, i8, i32, i32, i32, ptr, double, i8, i8, ptr, ptr, i8, i64, i8, i8, i8, ptr, ptr, %struct.elist, %struct.elist, %struct.elist, %struct.elist, %struct.elist, ptr, i32, ptr, i32, i32, double, %struct.elist, %struct.elist, %struct.elist, %struct.elist, ptr, i32, i32, i32, [1 x double] }
%struct.elist = type { ptr, i64 }

@.str.5 = private unnamed_addr constant [55 x i8] c"install_in_rank, line %d: %s %s rank %d i = %d an = 0\0A\00", align 1
@Root = internal global ptr null, align 8
@.str.6 = private unnamed_addr constant [73 x i8] c"install_in_rank, line %d: ND_order(%s) [%d] > GD_rank(Root)[%d].an [%d]\0A\00", align 1
@.str.7 = private unnamed_addr constant [61 x i8] c"install_in_rank, line %d: rank %d not in rank range [%d,%d]\0A\00", align 1
@.str.8 = private unnamed_addr constant [112 x i8] c"install_in_rank, line %d: GD_rank(g)[%d].v + ND_order(%s) [%d] > GD_rank(g)[%d].av + GD_rank(Root)[%d].an [%d]\0A\00", align 1

; Function Attrs: nounwind uwtable
define void @install_in_rank(ptr noundef %0, ptr noundef %1) #0 {
  %3 = alloca ptr, align 8
  %4 = alloca ptr, align 8
  %5 = alloca i32, align 4
  %6 = alloca i32, align 4
  %7 = alloca i32, align 4
  store ptr %0, ptr %3, align 8, !tbaa !3
  store ptr %1, ptr %4, align 8, !tbaa !41
  call void @llvm.lifetime.start.p0(i64 4, ptr %5) #15
  call void @llvm.lifetime.start.p0(i64 4, ptr %6) #15
  %8 = load ptr, ptr %4, align 8, !tbaa !41
  %9 = getelementptr inbounds nuw %struct.Agobj_s, ptr %8, i32 0, i32 1
  %10 = load ptr, ptr %9, align 8, !tbaa !8
  %11 = getelementptr inbounds nuw %struct.Agnodeinfo_t, ptr %10, i32 0, i32 43
  %12 = load i32, ptr %11, align 8, !tbaa !119
  store i32 %12, ptr %6, align 4, !tbaa !33
  %13 = load ptr, ptr %3, align 8, !tbaa !3
  %14 = getelementptr inbounds nuw %struct.Agobj_s, ptr %13, i32 0, i32 1
  %15 = load ptr, ptr %14, align 8, !tbaa !8
  %16 = getelementptr inbounds nuw %struct.Agraphinfo_t, ptr %15, i32 0, i32 28
  %17 = load ptr, ptr %16, align 8, !tbaa !35
  %18 = load i32, ptr %6, align 4, !tbaa !33
  %19 = sext i32 %18 to i64
  %20 = getelementptr inbounds %struct.rank_t, ptr %17, i64 %19
  %21 = getelementptr inbounds nuw %struct.rank_t, ptr %20, i32 0, i32 0
  %22 = load i32, ptr %21, align 8, !tbaa !37
  store i32 %22, ptr %5, align 4, !tbaa !33
  %23 = load ptr, ptr %3, align 8, !tbaa !3
  %24 = getelementptr inbounds nuw %struct.Agobj_s, ptr %23, i32 0, i32 1
  %25 = load ptr, ptr %24, align 8, !tbaa !8
  %26 = getelementptr inbounds nuw %struct.Agraphinfo_t, ptr %25, i32 0, i32 28
  %27 = load ptr, ptr %26, align 8, !tbaa !35
  %28 = load i32, ptr %6, align 4, !tbaa !33
  %29 = sext i32 %28 to i64
  %30 = getelementptr inbounds %struct.rank_t, ptr %27, i64 %29
  %31 = getelementptr inbounds nuw %struct.rank_t, ptr %30, i32 0, i32 2
  %32 = load i32, ptr %31, align 8, !tbaa !93
  %33 = icmp sle i32 %32, 0
  br i1 %33, label %34, label %41

34:                                               ; preds = %2
  %35 = load ptr, ptr %3, align 8, !tbaa !3
  %36 = call ptr @agnameof(ptr noundef %35)
  %37 = load ptr, ptr %4, align 8, !tbaa !41
  %38 = call ptr @agnameof(ptr noundef %37)
  %39 = load i32, ptr %6, align 4, !tbaa !33
  %40 = load i32, ptr %5, align 4, !tbaa !33
  call void (ptr, ...) @agerrorf(ptr noundef @.str.5, i32 noundef 1184, ptr noundef %36, ptr noundef %38, i32 noundef %39, i32 noundef %40)
  store i32 1, ptr %7, align 4
  br label %198

41:                                               ; preds = %2
  %42 = load ptr, ptr %4, align 8, !tbaa !41
  %43 = load ptr, ptr %3, align 8, !tbaa !3
  %44 = getelementptr inbounds nuw %struct.Agobj_s, ptr %43, i32 0, i32 1
  %45 = load ptr, ptr %44, align 8, !tbaa !8
  %46 = getelementptr inbounds nuw %struct.Agraphinfo_t, ptr %45, i32 0, i32 28
  %47 = load ptr, ptr %46, align 8, !tbaa !35
  %48 = load i32, ptr %6, align 4, !tbaa !33
  %49 = sext i32 %48 to i64
  %50 = getelementptr inbounds %struct.rank_t, ptr %47, i64 %49
  %51 = getelementptr inbounds nuw %struct.rank_t, ptr %50, i32 0, i32 1
  %52 = load ptr, ptr %51, align 8, !tbaa !40
  %53 = load i32, ptr %5, align 4, !tbaa !33
  %54 = sext i32 %53 to i64
  %55 = getelementptr inbounds ptr, ptr %52, i64 %54
  store ptr %42, ptr %55, align 8, !tbaa !41
  %56 = load i32, ptr %5, align 4, !tbaa !33
  %57 = load ptr, ptr %4, align 8, !tbaa !41
  %58 = getelementptr inbounds nuw %struct.Agobj_s, ptr %57, i32 0, i32 1
  %59 = load ptr, ptr %58, align 8, !tbaa !8
  %60 = getelementptr inbounds nuw %struct.Agnodeinfo_t, ptr %59, i32 0, i32 44
  store i32 %56, ptr %60, align 4, !tbaa !55
  %61 = load ptr, ptr %3, align 8, !tbaa !3
  %62 = getelementptr inbounds nuw %struct.Agobj_s, ptr %61, i32 0, i32 1
  %63 = load ptr, ptr %62, align 8, !tbaa !8
  %64 = getelementptr inbounds nuw %struct.Agraphinfo_t, ptr %63, i32 0, i32 28
  %65 = load ptr, ptr %64, align 8, !tbaa !35
  %66 = load i32, ptr %6, align 4, !tbaa !33
  %67 = sext i32 %66 to i64
  %68 = getelementptr inbounds %struct.rank_t, ptr %65, i64 %67
  %69 = getelementptr inbounds nuw %struct.rank_t, ptr %68, i32 0, i32 0
  %70 = load i32, ptr %69, align 8, !tbaa !37
  %71 = add nsw i32 %70, 1
  store i32 %71, ptr %69, align 8, !tbaa !37
  %72 = load ptr, ptr %4, align 8, !tbaa !41
  %73 = getelementptr inbounds nuw %struct.Agobj_s, ptr %72, i32 0, i32 1
  %74 = load ptr, ptr %73, align 8, !tbaa !8
  %75 = getelementptr inbounds nuw %struct.Agnodeinfo_t, ptr %74, i32 0, i32 44
  %76 = load i32, ptr %75, align 4, !tbaa !55
  %77 = load ptr, ptr @Root, align 8, !tbaa !3
  %78 = getelementptr inbounds nuw %struct.Agobj_s, ptr %77, i32 0, i32 1
  %79 = load ptr, ptr %78, align 8, !tbaa !8
  %80 = getelementptr inbounds nuw %struct.Agraphinfo_t, ptr %79, i32 0, i32 28
  %81 = load ptr, ptr %80, align 8, !tbaa !35
  %82 = load i32, ptr %6, align 4, !tbaa !33
  %83 = sext i32 %82 to i64
  %84 = getelementptr inbounds %struct.rank_t, ptr %81, i64 %83
  %85 = getelementptr inbounds nuw %struct.rank_t, ptr %84, i32 0, i32 2
  %86 = load i32, ptr %85, align 8, !tbaa !93
  %87 = icmp sgt i32 %76, %86
  br i1 %87, label %88, label %107

88:                                               ; preds = %41
  %89 = load ptr, ptr %4, align 8, !tbaa !41
  %90 = call ptr @agnameof(ptr noundef %89)
  %91 = load ptr, ptr %4, align 8, !tbaa !41
  %92 = getelementptr inbounds nuw %struct.Agobj_s, ptr %91, i32 0, i32 1
  %93 = load ptr, ptr %92, align 8, !tbaa !8
  %94 = getelementptr inbounds nuw %struct.Agnodeinfo_t, ptr %93, i32 0, i32 44
  %95 = load i32, ptr %94, align 4, !tbaa !55
  %96 = load i32, ptr %6, align 4, !tbaa !33
  %97 = load ptr, ptr @Root, align 8, !tbaa !3
  %98 = getelementptr inbounds nuw %struct.Agobj_s, ptr %97, i32 0, i32 1
  %99 = load ptr, ptr %98, align 8, !tbaa !8
  %100 = getelementptr inbounds nuw %struct.Agraphinfo_t, ptr %99, i32 0, i32 28
  %101 = load ptr, ptr %100, align 8, !tbaa !35
  %102 = load i32, ptr %6, align 4, !tbaa !33
  %103 = sext i32 %102 to i64
  %104 = getelementptr inbounds %struct.rank_t, ptr %101, i64 %103
  %105 = getelementptr inbounds nuw %struct.rank_t, ptr %104, i32 0, i32 2
  %106 = load i32, ptr %105, align 8, !tbaa !93
  call void (ptr, ...) @agerrorf(ptr noundef @.str.6, i32 noundef 1204, ptr noundef %90, i32 noundef %95, i32 noundef %96, i32 noundef %106)
  store i32 1, ptr %7, align 4
  br label %198

107:                                              ; preds = %41
  %108 = load i32, ptr %6, align 4, !tbaa !33
  %109 = load ptr, ptr %3, align 8, !tbaa !3
  %110 = getelementptr inbounds nuw %struct.Agobj_s, ptr %109, i32 0, i32 1
  %111 = load ptr, ptr %110, align 8, !tbaa !8
  %112 = getelementptr inbounds nuw %struct.Agraphinfo_t, ptr %111, i32 0, i32 36
  %113 = load i32, ptr %112, align 8, !tbaa !14
  %114 = icmp slt i32 %108, %113
  br i1 %114, label %123, label %115

115:                                              ; preds = %107
  %116 = load i32, ptr %6, align 4, !tbaa !33
  %117 = load ptr, ptr %3, align 8, !tbaa !3
  %118 = getelementptr inbounds nuw %struct.Agobj_s, ptr %117, i32 0, i32 1
  %119 = load ptr, ptr %118, align 8, !tbaa !8
  %120 = getelementptr inbounds nuw %struct.Agraphinfo_t, ptr %119, i32 0, i32 37
  %121 = load i32, ptr %120, align 4, !tbaa !34
  %122 = icmp sgt i32 %116, %121
  br i1 %122, label %123, label %135

123:                                              ; preds = %115, %107
  %124 = load i32, ptr %6, align 4, !tbaa !33
  %125 = load ptr, ptr %3, align 8, !tbaa !3
  %126 = getelementptr inbounds nuw %struct.Agobj_s, ptr %125, i32 0, i32 1
  %127 = load ptr, ptr %126, align 8, !tbaa !8
  %128 = getelementptr inbounds nuw %struct.Agraphinfo_t, ptr %127, i32 0, i32 36
  %129 = load i32, ptr %128, align 8, !tbaa !14
  %130 = load ptr, ptr %3, align 8, !tbaa !3
  %131 = getelementptr inbounds nuw %struct.Agobj_s, ptr %130, i32 0, i32 1
  %132 = load ptr, ptr %131, align 8, !tbaa !8
  %133 = getelementptr inbounds nuw %struct.Agraphinfo_t, ptr %132, i32 0, i32 37
  %134 = load i32, ptr %133, align 4, !tbaa !34
  call void (ptr, ...) @agerrorf(ptr noundef @.str.7, i32 noundef 1209, i32 noundef %124, i32 noundef %129, i32 noundef %134)
  store i32 1, ptr %7, align 4
  br label %198

135:                                              ; preds = %115
  %136 = load ptr, ptr %3, align 8, !tbaa !3
  %137 = getelementptr inbounds nuw %struct.Agobj_s, ptr %136, i32 0, i32 1
  %138 = load ptr, ptr %137, align 8, !tbaa !8
  %139 = getelementptr inbounds nuw %struct.Agraphinfo_t, ptr %138, i32 0, i32 28
  %140 = load ptr, ptr %139, align 8, !tbaa !35
  %141 = load i32, ptr %6, align 4, !tbaa !33
  %142 = sext i32 %141 to i64
  %143 = getelementptr inbounds %struct.rank_t, ptr %140, i64 %142
  %144 = getelementptr inbounds nuw %struct.rank_t, ptr %143, i32 0, i32 1
  %145 = load ptr, ptr %144, align 8, !tbaa !40
  %146 = load ptr, ptr %4, align 8, !tbaa !41
  %147 = getelementptr inbounds nuw %struct.Agobj_s, ptr %146, i32 0, i32 1
  %148 = load ptr, ptr %147, align 8, !tbaa !8
  %149 = getelementptr inbounds nuw %struct.Agnodeinfo_t, ptr %148, i32 0, i32 44
  %150 = load i32, ptr %149, align 4, !tbaa !55
  %151 = sext i32 %150 to i64
  %152 = getelementptr inbounds ptr, ptr %145, i64 %151
  %153 = load ptr, ptr %3, align 8, !tbaa !3
  %154 = getelementptr inbounds nuw %struct.Agobj_s, ptr %153, i32 0, i32 1
  %155 = load ptr, ptr %154, align 8, !tbaa !8
  %156 = getelementptr inbounds nuw %struct.Agraphinfo_t, ptr %155, i32 0, i32 28
  %157 = load ptr, ptr %156, align 8, !tbaa !35
  %158 = load i32, ptr %6, align 4, !tbaa !33
  %159 = sext i32 %158 to i64
  %160 = getelementptr inbounds %struct.rank_t, ptr %157, i64 %159
  %161 = getelementptr inbounds nuw %struct.rank_t, ptr %160, i32 0, i32 3
  %162 = load ptr, ptr %161, align 8, !tbaa !94
  %163 = load ptr, ptr @Root, align 8, !tbaa !3
  %164 = getelementptr inbounds nuw %struct.Agobj_s, ptr %163, i32 0, i32 1
  %165 = load ptr, ptr %164, align 8, !tbaa !8
  %166 = getelementptr inbounds nuw %struct.Agraphinfo_t, ptr %165, i32 0, i32 28
  %167 = load ptr, ptr %166, align 8, !tbaa !35
  %168 = load i32, ptr %6, align 4, !tbaa !33
  %169 = sext i32 %168 to i64
  %170 = getelementptr inbounds %struct.rank_t, ptr %167, i64 %169
  %171 = getelementptr inbounds nuw %struct.rank_t, ptr %170, i32 0, i32 2
  %172 = load i32, ptr %171, align 8, !tbaa !93
  %173 = sext i32 %172 to i64
  %174 = getelementptr inbounds ptr, ptr %162, i64 %173
  %175 = icmp ugt ptr %152, %174
  br i1 %175, label %176, label %197

176:                                              ; preds = %135
  %177 = load i32, ptr %6, align 4, !tbaa !33
  %178 = load ptr, ptr %4, align 8, !tbaa !41
  %179 = call ptr @agnameof(ptr noundef %178)
  %180 = load ptr, ptr %4, align 8, !tbaa !41
  %181 = getelementptr inbounds nuw %struct.Agobj_s, ptr %180, i32 0, i32 1
  %182 = load ptr, ptr %181, align 8, !tbaa !8
  %183 = getelementptr inbounds nuw %struct.Agnodeinfo_t, ptr %182, i32 0, i32 44
  %184 = load i32, ptr %183, align 4, !tbaa !55
  %185 = load i32, ptr %6, align 4, !tbaa !33
  %186 = load i32, ptr %6, align 4, !tbaa !33
  %187 = load ptr, ptr @Root, align 8, !tbaa !3
  %188 = getelementptr inbounds nuw %struct.Agobj_s, ptr %187, i32 0, i32 1
  %189 = load ptr, ptr %188, align 8, !tbaa !8
  %190 = getelementptr inbounds nuw %struct.Agraphinfo_t, ptr %189, i32 0, i32 28
  %191 = load ptr, ptr %190, align 8, !tbaa !35
  %192 = load i32, ptr %6, align 4, !tbaa !33
  %193 = sext i32 %192 to i64
  %194 = getelementptr inbounds %struct.rank_t, ptr %191, i64 %193
  %195 = getelementptr inbounds nuw %struct.rank_t, ptr %194, i32 0, i32 2
  %196 = load i32, ptr %195, align 8, !tbaa !93
  call void (ptr, ...) @agerrorf(ptr noundef @.str.8, i32 noundef 1215, i32 noundef %177, ptr noundef %179, i32 noundef %184, i32 noundef %185, i32 noundef %186, i32 noundef %196)
  store i32 1, ptr %7, align 4
  br label %198

197:                                              ; preds = %135
  store i32 0, ptr %7, align 4
  br label %198

198:                                              ; preds = %197, %176, %123, %88, %34
  call void @llvm.lifetime.end.p0(i64 4, ptr %6) #15
  call void @llvm.lifetime.end.p0(i64 4, ptr %5) #15
  %199 = load i32, ptr %7, align 4
  switch i32 %199, label %201 [
    i32 0, label %200
    i32 1, label %200
  ]

200:                                              ; preds = %198, %198
  ret void

201:                                              ; preds = %198
  unreachable
}