; Function Attrs: nounwind uwtable
define void @install_in_rank(ptr noundef %0, ptr noundef %1) local_unnamed_addr #0 {
  %3 = getelementptr inbounds nuw i8, ptr %1, i64 16
  %4 = load ptr, ptr %3, align 8, !tbaa !3
  %5 = getelementptr inbounds nuw i8, ptr %4, i64 360
  %6 = load i32, ptr %5, align 8, !tbaa !138
  %7 = getelementptr inbounds nuw i8, ptr %0, i64 16
  %8 = load ptr, ptr %7, align 8, !tbaa !3
  %9 = getelementptr inbounds nuw i8, ptr %8, i64 264
  %10 = load ptr, ptr %9, align 8, !tbaa !33
  %11 = sext i32 %6 to i64
  %12 = getelementptr inbounds %struct.rank_t, ptr %10, i64 %11
  %13 = load i32, ptr %12, align 8, !tbaa !34
  %14 = getelementptr inbounds nuw i8, ptr %12, i64 16
  %15 = load i32, ptr %14, align 8, !tbaa !89
  %16 = icmp slt i32 %15, 1
  br i1 %16, label %17, label %20

17:                                               ; preds = %2
  %18 = tail call ptr @agnameof(ptr noundef nonnull %0) #23
  %19 = tail call ptr @agnameof(ptr noundef nonnull %1) #23
  tail call void (ptr, ...) @agerrorf(ptr noundef nonnull @.str.5, i32 noundef 1184, ptr noundef %18, ptr noundef %19, i32 noundef %6, i32 noundef %13) #23
  br label %70

20:                                               ; preds = %2
  %21 = getelementptr inbounds nuw i8, ptr %12, i64 8
  %22 = load ptr, ptr %21, align 8, !tbaa !37
  %23 = sext i32 %13 to i64
  %24 = getelementptr inbounds ptr, ptr %22, i64 %23
  store ptr %1, ptr %24, align 8, !tbaa !38
  %25 = getelementptr inbounds nuw i8, ptr %4, i64 364
  store i32 %13, ptr %25, align 4, !tbaa !55
  %26 = add nsw i32 %13, 1
  store i32 %26, ptr %12, align 8, !tbaa !34
  %27 = load ptr, ptr @Root, align 8, !tbaa !74
  %28 = getelementptr inbounds nuw i8, ptr %27, i64 16
  %29 = load ptr, ptr %28, align 8, !tbaa !3
  %30 = getelementptr inbounds nuw i8, ptr %29, i64 264
  %31 = load ptr, ptr %30, align 8, !tbaa !33
  %32 = getelementptr inbounds %struct.rank_t, ptr %31, i64 %11, i32 2
  %33 = load i32, ptr %32, align 8, !tbaa !89
  %34 = icmp sgt i32 %13, %33
  br i1 %34, label %35, label %47

35:                                               ; preds = %20
  %36 = tail call ptr @agnameof(ptr noundef nonnull %1) #23
  %37 = load ptr, ptr %3, align 8, !tbaa !3
  %38 = getelementptr inbounds nuw i8, ptr %37, i64 364
  %39 = load i32, ptr %38, align 4, !tbaa !55
  %40 = load ptr, ptr @Root, align 8, !tbaa !74
  %41 = getelementptr inbounds nuw i8, ptr %40, i64 16
  %42 = load ptr, ptr %41, align 8, !tbaa !3
  %43 = getelementptr inbounds nuw i8, ptr %42, i64 264
  %44 = load ptr, ptr %43, align 8, !tbaa !33
  %45 = getelementptr inbounds %struct.rank_t, ptr %44, i64 %11, i32 2
  %46 = load i32, ptr %45, align 8, !tbaa !89
  tail call void (ptr, ...) @agerrorf(ptr noundef nonnull @.str.6, i32 noundef 1204, ptr noundef %36, i32 noundef %39, i32 noundef %6, i32 noundef %46) #23
  br label %70

47:                                               ; preds = %20
  %48 = getelementptr inbounds nuw i8, ptr %8, i64 336
  %49 = load i32, ptr %48, align 8, !tbaa !12
  %50 = icmp slt i32 %6, %49
  %.phi.trans.insert = getelementptr inbounds nuw i8, ptr %8, i64 340
  %.pre = load i32, ptr %.phi.trans.insert, align 4, !tbaa !32
  %51 = icmp sgt i32 %6, %.pre
  %or.cond = select i1 %50, i1 true, i1 %51
  br i1 %or.cond, label %._crit_edge, label %52

._crit_edge:                                      ; preds = %47
  tail call void (ptr, ...) @agerrorf(ptr noundef nonnull @.str.7, i32 noundef 1209, i32 noundef %6, i32 noundef %49, i32 noundef %.pre) #23
  br label %70

52:                                               ; preds = %47
  %53 = getelementptr inbounds nuw i8, ptr %12, i64 24
  %54 = load ptr, ptr %53, align 8, !tbaa !90
  %55 = sext i32 %33 to i64
  %56 = getelementptr inbounds ptr, ptr %54, i64 %55
  %57 = icmp ugt ptr %24, %56
  br i1 %57, label %58, label %70

58:                                               ; preds = %52
  %59 = tail call ptr @agnameof(ptr noundef nonnull %1) #23
  %60 = load ptr, ptr %3, align 8, !tbaa !3
  %61 = getelementptr inbounds nuw i8, ptr %60, i64 364
  %62 = load i32, ptr %61, align 4, !tbaa !55
  %63 = load ptr, ptr @Root, align 8, !tbaa !74
  %64 = getelementptr inbounds nuw i8, ptr %63, i64 16
  %65 = load ptr, ptr %64, align 8, !tbaa !3
  %66 = getelementptr inbounds nuw i8, ptr %65, i64 264
  %67 = load ptr, ptr %66, align 8, !tbaa !33
  %68 = getelementptr inbounds %struct.rank_t, ptr %67, i64 %11, i32 2
  %69 = load i32, ptr %68, align 8, !tbaa !89
  tail call void (ptr, ...) @agerrorf(ptr noundef nonnull @.str.8, i32 noundef 1215, i32 noundef %6, ptr noundef %59, i32 noundef %62, i32 noundef %6, i32 noundef %6, i32 noundef %69) #23
  br label %70

70:                                               ; preds = %52, %58, %._crit_edge, %35, %17
  ret void
}